target datalayout = "e-m:e-p270:32:32-p271:32:32-p272:64:64-i64:64-i128:128-f80:128-n8:16:32:64-S128"
target triple = "x86_64-pc-linux-gnu"

%struct.tm = type { i32, i32, i32, i32, i32, i32, i32, i32, i32, i64, ptr }

; Function Attrs: inlinehint nounwind willreturn memory(read) uwtable
define available_externally i32 @atoi(ptr noundef nonnull %0) #8 {
  %2 = alloca ptr, align 8
  store ptr %0, ptr %2, align 8
  %3 = load ptr, ptr %2, align 8
  %4 = call i64 @strtol(ptr noundef %3, ptr noundef null, i32 noundef 10) #9
  %5 = trunc i64 %4 to i32
  ret i32 %5
}

; Function Attrs: nounwind uwtable
define internal i32 @DecodeNumberField(i32 noundef %0, ptr noundef %1, i32 noundef %2, ptr noundef %3, ptr noundef %4, ptr noundef %5, ptr noundef %6) #0 {
  %8 = alloca i32, align 4
  %9 = alloca i32, align 4
  %10 = alloca ptr, align 8
  %11 = alloca i32, align 4
  %12 = alloca ptr, align 8
  %13 = alloca ptr, align 8
  %14 = alloca ptr, align 8
  %15 = alloca ptr, align 8
  %16 = alloca ptr, align 8
  %17 = alloca [7 x i8], align 1
  %18 = alloca i32, align 4
  %19 = alloca i32, align 4
  store i32 %0, ptr %9, align 4
  store ptr %1, ptr %10, align 8
  store i32 %2, ptr %11, align 4
  store ptr %3, ptr %12, align 8
  store ptr %4, ptr %13, align 8
  store ptr %5, ptr %14, align 8
  store ptr %6, ptr %15, align 8
  call void @llvm.lifetime.start.p0(i64 8, ptr %16) #9
  %20 = load ptr, ptr %10, align 8
  %21 = call ptr @strchr(ptr noundef %20, i32 noundef 46) #10
  store ptr %21, ptr %16, align 8
  %22 = icmp ne ptr %21, null
  br i1 %22, label %23, label %60

23:                                               ; preds = %7
  call void @llvm.lifetime.start.p0(i64 7, ptr %17) #9
  call void @llvm.lifetime.start.p0(i64 4, ptr %18) #9
  %24 = load ptr, ptr %16, align 8
  %25 = getelementptr inbounds nuw i8, ptr %24, i32 1
  store ptr %25, ptr %16, align 8
  store i32 0, ptr %18, align 4
  br label %26

26:                                               ; preds = %46, %23
  %27 = load i32, ptr %18, align 4
  %28 = icmp slt i32 %27, 6
  br i1 %28, label %29, label %49

29:                                               ; preds = %26
  %30 = load ptr, ptr %16, align 8
  %31 = load i8, ptr %30, align 1
  %32 = sext i8 %31 to i32
  %33 = icmp ne i32 %32, 0
  br i1 %33, label %34, label %39

34:                                               ; preds = %29
  %35 = load ptr, ptr %16, align 8
  %36 = getelementptr inbounds nuw i8, ptr %35, i32 1
  store ptr %36, ptr %16, align 8
  %37 = load i8, ptr %35, align 1
  %38 = sext i8 %37 to i32
  br label %40

39:                                               ; preds = %29
  br label %40

40:                                               ; preds = %39, %34
  %41 = phi i32 [ %38, %34 ], [ 48, %39 ]
  %42 = trunc i32 %41 to i8
  %43 = load i32, ptr %18, align 4
  %44 = sext i32 %43 to i64
  %45 = getelementptr inbounds [7 x i8], ptr %17, i64 0, i64 %44
  store i8 %42, ptr %45, align 1
  br label %46

46:                                               ; preds = %40
  %47 = load i32, ptr %18, align 4
  %48 = add i32 %47, 1
  store i32 %48, ptr %18, align 4
  br label %26, !llvm.loop !22

49:                                               ; preds = %26
  %50 = load i32, ptr %18, align 4
  %51 = sext i32 %50 to i64
  %52 = getelementptr inbounds [7 x i8], ptr %17, i64 0, i64 %51
  store i8 0, ptr %52, align 1
  %53 = getelementptr inbounds [7 x i8], ptr %17, i64 0, i64 0
  %54 = call i32 @strtoint(ptr noundef %53, ptr noundef null, i32 noundef 10)
  %55 = load ptr, ptr %14, align 8
  store i32 %54, ptr %55, align 4
  %56 = load ptr, ptr %16, align 8
  store i8 0, ptr %56, align 1
  %57 = load ptr, ptr %10, align 8
  %58 = call i64 @strlen(ptr noundef %57) #10
  %59 = trunc i64 %58 to i32
  store i32 %59, ptr %9, align 4
  call void @llvm.lifetime.end.p0(i64 4, ptr %18) #9
  call void @llvm.lifetime.end.p0(i64 7, ptr %17) #9
  br label %137

60:                                               ; preds = %7
  %61 = load i32, ptr %11, align 4
  %62 = and i32 %61, 14
  %63 = icmp ne i32 %62, 14
  br i1 %63, label %64, label %136

64:                                               ; preds = %60
  %65 = load i32, ptr %9, align 4
  %66 = icmp eq i32 %65, 8
  br i1 %66, label %67, label %88

67:                                               ; preds = %64
  %68 = load ptr, ptr %12, align 8
  store i32 14, ptr %68, align 4
  %69 = load ptr, ptr %10, align 8
  %70 = getelementptr inbounds i8, ptr %69, i64 6
  %71 = call i32 @atoi(ptr noundef %70) #10
  %72 = load ptr, ptr %13, align 8
  %73 = getelementptr inbounds nuw %struct.tm, ptr %72, i32 0, i32 3
  store i32 %71, ptr %73, align 4
  %74 = load ptr, ptr %10, align 8
  %75 = getelementptr inbounds i8, ptr %74, i64 6
  store i8 0, ptr %75, align 1
  %76 = load ptr, ptr %10, align 8
  %77 = getelementptr inbounds i8, ptr %76, i64 4
  %78 = call i32 @atoi(ptr noundef %77) #10
  %79 = load ptr, ptr %13, align 8
  %80 = getelementptr inbounds nuw %struct.tm, ptr %79, i32 0, i32 4
  store i32 %78, ptr %80, align 8
  %81 = load ptr, ptr %10, align 8
  %82 = getelementptr inbounds i8, ptr %81, i64 4
  store i8 0, ptr %82, align 1
  %83 = load ptr, ptr %10, align 8
  %84 = getelementptr inbounds i8, ptr %83, i64 0
  %85 = call i32 @atoi(ptr noundef %84) #10
  %86 = load ptr, ptr %13, align 8
  %87 = getelementptr inbounds nuw %struct.tm, ptr %86, i32 0, i32 5
  store i32 %85, ptr %87, align 4
  store i32 2, ptr %8, align 4
  store i32 1, ptr %19, align 4
  br label %187

88:                                               ; preds = %64
  %89 = load i32, ptr %9, align 4
  %90 = icmp eq i32 %89, 6
  br i1 %90, label %91, label %113

91:                                               ; preds = %88
  %92 = load ptr, ptr %12, align 8
  store i32 14, ptr %92, align 4
  %93 = load ptr, ptr %10, align 8
  %94 = getelementptr inbounds i8, ptr %93, i64 4
  %95 = call i32 @atoi(ptr noundef %94) #10
  %96 = load ptr, ptr %13, align 8
  %97 = getelementptr inbounds nuw %struct.tm, ptr %96, i32 0, i32 3
  store i32 %95, ptr %97, align 4
  %98 = load ptr, ptr %10, align 8
  %99 = getelementptr inbounds i8, ptr %98, i64 4
  store i8 0, ptr %99, align 1
  %100 = load ptr, ptr %10, align 8
  %101 = getelementptr inbounds i8, ptr %100, i64 2
  %102 = call i32 @atoi(ptr noundef %101) #10
  %103 = load ptr, ptr %13, align 8
  %104 = getelementptr inbounds nuw %struct.tm, ptr %103, i32 0, i32 4
  store i32 %102, ptr %104, align 8
  %105 = load ptr, ptr %10, align 8
  %106 = getelementptr inbounds i8, ptr %105, i64 2
  store i8 0, ptr %106, align 1
  %107 = load ptr, ptr %10, align 8
  %108 = getelementptr inbounds i8, ptr %107, i64 0
  %109 = call i32 @atoi(ptr noundef %108) #10
  %110 = load ptr, ptr %13, align 8
  %111 = getelementptr inbounds nuw %struct.tm, ptr %110, i32 0, i32 5
  store i32 %109, ptr %111, align 4
  %112 = load ptr, ptr %15, align 8
  store i8 1, ptr %112, align 1
  store i32 2, ptr %8, align 4
  store i32 1, ptr %19, align 4
  br label %187

113:                                              ; preds = %88
  %114 = load i32, ptr %9, align 4
  %115 = icmp eq i32 %114, 5
  br i1 %115, label %116, label %133

116:                                              ; preds = %113
  %117 = load ptr, ptr %12, align 8
  store i32 14, ptr %117, align 4
  %118 = load ptr, ptr %10, align 8
  %119 = getelementptr inbounds i8, ptr %118, i64 2
  %120 = call i32 @atoi(ptr noundef %119) #10
  %121 = load ptr, ptr %13, align 8
  %122 = getelementptr inbounds nuw %struct.tm, ptr %121, i32 0, i32 3
  store i32 %120, ptr %122, align 4
  %123 = load ptr, ptr %10, align 8
  %124 = getelementptr inbounds i8, ptr %123, i64 2
  store i8 0, ptr %124, align 1
  %125 = load ptr, ptr %13, align 8
  %126 = getelementptr inbounds nuw %struct.tm, ptr %125, i32 0, i32 4
  store i32 1, ptr %126, align 8
  %127 = load ptr, ptr %10, align 8
  %128 = getelementptr inbounds i8, ptr %127, i64 0
  %129 = call i32 @atoi(ptr noundef %128) #10
  %130 = load ptr, ptr %13, align 8
  %131 = getelementptr inbounds nuw %struct.tm, ptr %130, i32 0, i32 5
  store i32 %129, ptr %131, align 4
  %132 = load ptr, ptr %15, align 8
  store i8 1, ptr %132, align 1
  store i32 2, ptr %8, align 4
  store i32 1, ptr %19, align 4
  br label %187

133:                                              ; preds = %113
  br label %134

134:                                              ; preds = %133
  br label %135

135:                                              ; preds = %134
  br label %136

136:                                              ; preds = %135, %60
  br label %137

137:                                              ; preds = %136, %49
  %138 = load i32, ptr %11, align 4
  %139 = and i32 %138, 7168
  %140 = icmp ne i32 %139, 7168
  br i1 %140, label %141, label %186

141:                                              ; preds = %137
  %142 = load i32, ptr %9, align 4
  %143 = icmp eq i32 %142, 6
  br i1 %143, label %144, label %165

144:                                              ; preds = %141
  %145 = load ptr, ptr %12, align 8
  store i32 7168, ptr %145, align 4
  %146 = load ptr, ptr %10, align 8
  %147 = getelementptr inbounds i8, ptr %146, i64 4
  %148 = call i32 @atoi(ptr noundef %147) #10
  %149 = load ptr, ptr %13, align 8
  %150 = getelementptr inbounds nuw %struct.tm, ptr %149, i32 0, i32 0
  store i32 %148, ptr %150, align 8
  %151 = load ptr, ptr %10, align 8
  %152 = getelementptr inbounds i8, ptr %151, i64 4
  store i8 0, ptr %152, align 1
  %153 = load ptr, ptr %10, align 8
  %154 = getelementptr inbounds i8, ptr %153, i64 2
  %155 = call i32 @atoi(ptr noundef %154) #10
  %156 = load ptr, ptr %13, align 8
  %157 = getelementptr inbounds nuw %struct.tm, ptr %156, i32 0, i32 1
  store i32 %155, ptr %157, align 4
  %158 = load ptr, ptr %10, align 8
  %159 = getelementptr inbounds i8, ptr %158, i64 2
  store i8 0, ptr %159, align 1
  %160 = load ptr, ptr %10, align 8
  %161 = getelementptr inbounds i8, ptr %160, i64 0
  %162 = call i32 @atoi(ptr noundef %161) #10
  %163 = load ptr, ptr %13, align 8
  %164 = getelementptr inbounds nuw %struct.tm, ptr %163, i32 0, i32 2
  store i32 %162, ptr %164, align 8
  store i32 3, ptr %8, align 4
  store i32 1, ptr %19, align 4
  br label %187

165:                                              ; preds = %141
  %166 = load i32, ptr %9, align 4
  %167 = icmp eq i32 %166, 4
  br i1 %167, label %168, label %184

168:                                              ; preds = %165
  %169 = load ptr, ptr %12, align 8
  store i32 7168, ptr %169, align 4
  %170 = load ptr, ptr %13, align 8
  %171 = getelementptr inbounds nuw %struct.tm, ptr %170, i32 0, i32 0
  store i32 0, ptr %171, align 8
  %172 = load ptr, ptr %10, align 8
  %173 = getelementptr inbounds i8, ptr %172, i64 2
  %174 = call i32 @atoi(ptr noundef %173) #10
  %175 = load ptr, ptr %13, align 8
  %176 = getelementptr inbounds nuw %struct.tm, ptr %175, i32 0, i32 1
  store i32 %174, ptr %176, align 4
  %177 = load ptr, ptr %10, align 8
  %178 = getelementptr inbounds i8, ptr %177, i64 2
  store i8 0, ptr %178, align 1
  %179 = load ptr, ptr %10, align 8
  %180 = getelementptr inbounds i8, ptr %179, i64 0
  %181 = call i32 @atoi(ptr noundef %180) #10
  %182 = load ptr, ptr %13, align 8
  %183 = getelementptr inbounds nuw %struct.tm, ptr %182, i32 0, i32 2
  store i32 %181, ptr %183, align 8
  store i32 3, ptr %8, align 4
  store i32 1, ptr %19, align 4
  br label %187

184:                                              ; preds = %165
  br label %185

185:                                              ; preds = %184
  br label %186

186:                                              ; preds = %185, %137
  store i32 -1, ptr %8, align 4
  store i32 1, ptr %19, align 4
  br label %187

187:                                              ; preds = %186, %168, %144, %116, %91, %67
  call void @llvm.lifetime.end.p0(i64 8, ptr %16) #9
  %188 = load i32, ptr %8, align 4
  ret i32 %188
}