; Function Attrs: nounwind uwtable
define internal fastcc range(i32 -1, 4) i32 @DecodeNumberField(i32 noundef %0, ptr noundef %1, i32 noundef %2, ptr noundef nonnull writeonly captures(none) %3, ptr noundef writeonly captures(none) %4, ptr noundef writeonly captures(none) %5, ptr noundef nonnull writeonly captures(none) %6) unnamed_addr #5 {
  %8 = alloca [7 x i8], align 1
  %9 = tail call ptr @strchr(ptr noundef nonnull dereferenceable(1) %1, i32 noundef 46) #16
  %.not = icmp eq ptr %9, null
  br i1 %.not, label %20, label %10

10:                                               ; preds = %7
  call void @llvm.lifetime.start.p0(i64 7, ptr nonnull %8) #17
  %11 = getelementptr inbounds nuw i8, ptr %9, i64 1
  br label %12

12:                                               ; preds = %10, %12
  %indvars.iv = phi i64 [ 0, %10 ], [ %indvars.iv.next, %12 ]
  %.06171 = phi ptr [ %11, %10 ], [ %spec.select, %12 ]
  %13 = load i8, ptr %.06171, align 1
  %.not69 = icmp ne i8 %13, 0
  %spec.select.idx = zext i1 %.not69 to i64
  %spec.select = getelementptr inbounds nuw i8, ptr %.06171, i64 %spec.select.idx
  %spec.select70 = select i1 %.not69, i8 %13, i8 48
  %14 = getelementptr inbounds nuw [7 x i8], ptr %8, i64 0, i64 %indvars.iv
  store i8 %spec.select70, ptr %14, align 1
  %indvars.iv.next = add nuw nsw i64 %indvars.iv, 1
  %exitcond.not = icmp eq i64 %indvars.iv.next, 6
  br i1 %exitcond.not, label %15, label %12, !llvm.loop !23

15:                                               ; preds = %12
  %16 = getelementptr inbounds nuw i8, ptr %8, i64 6
  store i8 0, ptr %16, align 1
  %17 = call i32 @strtoint(ptr noundef nonnull %8, ptr noundef null, i32 noundef 10) #17
  store i32 %17, ptr %5, align 4
  store i8 0, ptr %spec.select, align 1
  %18 = call i64 @strlen(ptr noundef nonnull dereferenceable(1) %1) #16
  %19 = trunc i64 %18 to i32
  call void @llvm.lifetime.end.p0(i64 7, ptr nonnull %8) #17
  br label %56

20:                                               ; preds = %7
  %21 = and i32 %2, 14
  %.not67 = icmp eq i32 %21, 14
  br i1 %.not67, label %56, label %22

22:                                               ; preds = %20
  switch i32 %0, label %56 [
    i32 8, label %23
    i32 6, label %35
    i32 5, label %47
  ]

23:                                               ; preds = %22
  store i32 14, ptr %3, align 4
  %24 = getelementptr inbounds nuw i8, ptr %1, i64 6
  %25 = tail call i64 @strtol(ptr noundef nonnull captures(none) %24, ptr noundef null, i32 noundef 10) #17
  %26 = trunc i64 %25 to i32
  %27 = getelementptr inbounds nuw i8, ptr %4, i64 12
  store i32 %26, ptr %27, align 4
  store i8 0, ptr %24, align 1
  %28 = getelementptr inbounds nuw i8, ptr %1, i64 4
  %29 = tail call i64 @strtol(ptr noundef nonnull captures(none) %28, ptr noundef null, i32 noundef 10) #17
  %30 = trunc i64 %29 to i32
  %31 = getelementptr inbounds nuw i8, ptr %4, i64 16
  store i32 %30, ptr %31, align 8
  store i8 0, ptr %28, align 1
  %32 = tail call i64 @strtol(ptr noundef nonnull captures(none) %1, ptr noundef null, i32 noundef 10) #17
  %33 = trunc i64 %32 to i32
  %34 = getelementptr inbounds nuw i8, ptr %4, i64 20
  store i32 %33, ptr %34, align 4
  br label %78

35:                                               ; preds = %22
  store i32 14, ptr %3, align 4
  %36 = getelementptr inbounds nuw i8, ptr %1, i64 4
  %37 = tail call i64 @strtol(ptr noundef nonnull captures(none) %36, ptr noundef null, i32 noundef 10) #17
  %38 = trunc i64 %37 to i32
  %39 = getelementptr inbounds nuw i8, ptr %4, i64 12
  store i32 %38, ptr %39, align 4
  store i8 0, ptr %36, align 1
  %40 = getelementptr inbounds nuw i8, ptr %1, i64 2
  %41 = tail call i64 @strtol(ptr noundef nonnull captures(none) %40, ptr noundef null, i32 noundef 10) #17
  %42 = trunc i64 %41 to i32
  %43 = getelementptr inbounds nuw i8, ptr %4, i64 16
  store i32 %42, ptr %43, align 8
  store i8 0, ptr %40, align 1
  %44 = tail call i64 @strtol(ptr noundef nonnull captures(none) %1, ptr noundef null, i32 noundef 10) #17
  %45 = trunc i64 %44 to i32
  %46 = getelementptr inbounds nuw i8, ptr %4, i64 20
  store i32 %45, ptr %46, align 4
  store i8 1, ptr %6, align 1
  br label %78

47:                                               ; preds = %22
  store i32 14, ptr %3, align 4
  %48 = getelementptr inbounds nuw i8, ptr %1, i64 2
  %49 = tail call i64 @strtol(ptr noundef nonnull captures(none) %48, ptr noundef null, i32 noundef 10) #17
  %50 = trunc i64 %49 to i32
  %51 = getelementptr inbounds nuw i8, ptr %4, i64 12
  store i32 %50, ptr %51, align 4
  store i8 0, ptr %48, align 1
  %52 = getelementptr inbounds nuw i8, ptr %4, i64 16
  store i32 1, ptr %52, align 8
  %53 = tail call i64 @strtol(ptr noundef nonnull captures(none) %1, ptr noundef null, i32 noundef 10) #17
  %54 = trunc i64 %53 to i32
  %55 = getelementptr inbounds nuw i8, ptr %4, i64 20
  store i32 %54, ptr %55, align 4
  store i8 1, ptr %6, align 1
  br label %78

56:                                               ; preds = %22, %20, %15
  %.063 = phi i32 [ %19, %15 ], [ %0, %20 ], [ %0, %22 ]
  %57 = and i32 %2, 7168
  %.not68 = icmp eq i32 %57, 7168
  br i1 %.not68, label %78, label %58

58:                                               ; preds = %56
  switch i32 %.063, label %78 [
    i32 6, label %59
    i32 4, label %70
  ]

59:                                               ; preds = %58
  store i32 7168, ptr %3, align 4
  %60 = getelementptr inbounds nuw i8, ptr %1, i64 4
  %61 = call i64 @strtol(ptr noundef nonnull captures(none) %60, ptr noundef null, i32 noundef 10) #17
  %62 = trunc i64 %61 to i32
  store i32 %62, ptr %4, align 8
  store i8 0, ptr %60, align 1
  %63 = getelementptr inbounds nuw i8, ptr %1, i64 2
  %64 = call i64 @strtol(ptr noundef nonnull captures(none) %63, ptr noundef null, i32 noundef 10) #17
  %65 = trunc i64 %64 to i32
  %66 = getelementptr inbounds nuw i8, ptr %4, i64 4
  store i32 %65, ptr %66, align 4
  store i8 0, ptr %63, align 1
  %67 = call i64 @strtol(ptr noundef nonnull captures(none) %1, ptr noundef null, i32 noundef 10) #17
  %68 = trunc i64 %67 to i32
  %69 = getelementptr inbounds nuw i8, ptr %4, i64 8
  store i32 %68, ptr %69, align 8
  br label %78

70:                                               ; preds = %58
  store i32 7168, ptr %3, align 4
  store i32 0, ptr %4, align 8
  %71 = getelementptr inbounds nuw i8, ptr %1, i64 2
  %72 = call i64 @strtol(ptr noundef nonnull captures(none) %71, ptr noundef null, i32 noundef 10) #17
  %73 = trunc i64 %72 to i32
  %74 = getelementptr inbounds nuw i8, ptr %4, i64 4
  store i32 %73, ptr %74, align 4
  store i8 0, ptr %71, align 1
  %75 = call i64 @strtol(ptr noundef nonnull captures(none) %1, ptr noundef null, i32 noundef 10) #17
  %76 = trunc i64 %75 to i32
  %77 = getelementptr inbounds nuw i8, ptr %4, i64 8
  store i32 %76, ptr %77, align 8
  br label %78

78:                                               ; preds = %56, %58, %70, %59, %47, %35, %23
  %.062 = phi i32 [ 3, %59 ], [ 3, %70 ], [ 2, %23 ], [ 2, %35 ], [ 2, %47 ], [ -1, %58 ], [ -1, %56 ]
  ret i32 %.062
}